target datalayout = "e-m:e-p270:32:32-p271:32:32-p272:64:64-i64:64-i128:128-f80:128-n8:16:32:64-S128"
target triple = "x86_64-pc-linux-gnu"

%class.NumberSeq = type { %class.AbsSeq, double, double }
%class.AbsSeq = type { ptr, i32, double, double, double, double, double }
%class.G1CMTask = type { %class.TerminatorTerminator, %class.G1CMObjArrayProcessor, i32, ptr, ptr, ptr, ptr, %class.G1RegionMarkStatsCache, i32, double, double, ptr, ptr, ptr, ptr, i64, i64, i64, i64, i64, i64, i8, i8, i8, %class.NumberSeq, double, double, %class.TruncatedSeq }
%class.TerminatorTerminator = type { ptr }
%class.G1CMObjArrayProcessor = type { ptr }
%class.G1RegionMarkStatsCache = type { ptr, ptr, i32, i64, i64, i64 }
%class.TruncatedSeq = type { %class.AbsSeq, ptr, i32, i32 }

@g_assert_poison = external global ptr, align 8
@.str = private unnamed_addr constant [45 x i8] c"src/hotspot/share/gc/g1/g1ConcurrentMark.cpp\00", align 1
@.str.23 = private unnamed_addr constant [10 x i8] c"invariant\00", align 1
@.str.69 = private unnamed_addr constant [41 x i8] c"guarantee(mark_bitmap != nullptr) failed\00", align 1

; Function Attrs: mustprogress nounwind uwtable
define hidden void @_ZN8G1CMTask19clear_region_fieldsEv(ptr noundef nonnull align 8 dereferenceable(376) %0) #1 align 2 {
  %2 = alloca ptr, align 8
  store ptr %0, ptr %2, align 8
  %3 = load ptr, ptr %2, align 8
  %4 = getelementptr inbounds %class.G1CMTask, ptr %3, i32 0, i32 12
  store ptr null, ptr %4, align 8
  %5 = getelementptr inbounds %class.G1CMTask, ptr %3, i32 0, i32 13
  store ptr null, ptr %5, align 8
  %6 = getelementptr inbounds %class.G1CMTask, ptr %3, i32 0, i32 14
  store ptr null, ptr %6, align 8
  ret void
}

; Function Attrs: mustprogress nounwind uwtable
define hidden void @_ZN8G1CMTask5resetEP10G1CMBitMap(ptr noundef nonnull align 8 dereferenceable(376) %0, ptr noundef %1) #1 align 2 {
  %3 = alloca ptr, align 8
  %4 = alloca ptr, align 8
  store ptr %0, ptr %3, align 8
  store ptr %1, ptr %4, align 8
  %5 = load ptr, ptr %3, align 8
  br label %6

6:                                                ; preds = %2
  %7 = load ptr, ptr %4, align 8
  %8 = icmp ne ptr %7, null
  br i1 %8, label %11, label %9

9:                                                ; preds = %6
  %10 = load ptr, ptr @g_assert_poison, align 8
  store i8 88, ptr %10, align 1
  call void (ptr, i32, ptr, ptr, ...) @_Z15report_vm_errorPKciS0_S0_z(ptr noundef @.str, i32 noundef 2206, ptr noundef @.str.69, ptr noundef @.str.23) #12
  unreachable

11:                                               ; preds = %6
  br label %12

12:                                               ; preds = %11
  %13 = load ptr, ptr %4, align 8
  %14 = getelementptr inbounds %class.G1CMTask, ptr %5, i32 0, i32 5
  store ptr %13, ptr %14, align 8
  call void @_ZN8G1CMTask19clear_region_fieldsEv(ptr noundef nonnull align 8 dereferenceable(376) %5)
  %15 = getelementptr inbounds %class.G1CMTask, ptr %5, i32 0, i32 8
  store i32 0, ptr %15, align 8
  %16 = getelementptr inbounds %class.G1CMTask, ptr %5, i32 0, i32 25
  store double 0.000000e+00, ptr %16, align 8
  %17 = getelementptr inbounds %class.G1CMTask, ptr %5, i32 0, i32 26
  store double 0.000000e+00, ptr %17, align 8
  %18 = getelementptr inbounds %class.G1CMTask, ptr %5, i32 0, i32 7
  call void @_ZN22G1RegionMarkStatsCache5resetEv(ptr noundef nonnull align 8 dereferenceable(48) %18)
  ret void
}