; Function Attrs: mustprogress nounwind uwtable
define hidden void @_ZN8G1CMTask5resetEP10G1CMBitMap(ptr noundef nonnull align 8 dereferenceable(376) %0, ptr noundef %1) local_unnamed_addr #0 align 2 {
  %.not = icmp eq ptr %1, null
  br i1 %.not, label %3, label %5

3:                                                ; preds = %2
  %4 = load ptr, ptr @g_assert_poison, align 8
  store i8 88, ptr %4, align 1
  tail call void (ptr, i32, ptr, ptr, ...) @_Z15report_vm_errorPKciS0_S0_z(ptr noundef nonnull @.str, i32 noundef 2206, ptr noundef nonnull @.str.69, ptr noundef nonnull @.str.23) #23
  unreachable

5:                                                ; preds = %2
  %6 = getelementptr inbounds i8, ptr %0, i64 40
  store ptr %1, ptr %6, align 8
  %7 = getelementptr inbounds i8, ptr %0, i64 136
  tail call void @llvm.memset.p0.i64(ptr noundef nonnull align 8 dereferenceable(24) %7, i8 0, i64 24, i1 false)
  %8 = getelementptr inbounds i8, ptr %0, i64 104
  store i32 0, ptr %8, align 8
  %9 = getelementptr inbounds i8, ptr %0, i64 288
  %10 = getelementptr inbounds i8, ptr %0, i64 56
  tail call void @llvm.memset.p0.i64(ptr noundef nonnull align 8 dereferenceable(16) %9, i8 0, i64 16, i1 false)
  tail call void @_ZN22G1RegionMarkStatsCache5resetEv(ptr noundef nonnull align 8 dereferenceable(48) %10) #22
  ret void
}